target datalayout = "e-m:e-p270:32:32-p271:32:32-p272:64:64-i64:64-i128:128-f80:128-n8:16:32:64-S128"
target triple = "x86_64-pc-linux-gnu"

; Function Attrs: nounwind uwtable
define internal double @F(double noundef %0) #0 {
  %2 = alloca double, align 8
  store double %0, ptr %2, align 8, !tbaa !17
  %3 = load double, ptr %2, align 8, !tbaa !17
  %4 = fdiv double %3, 0x400921FB54442D18
  %5 = call double @sin(double noundef %4) #7, !tbaa !4
  %6 = fmul double 1.800000e-02, %5
  ret double %6
}

; Function Attrs: nounwind uwtable
define internal i32 @qdot(double noundef %0, ptr noundef %1, ptr noundef %2, ptr noundef %3) #0 {
  %5 = alloca double, align 8
  %6 = alloca ptr, align 8
  %7 = alloca ptr, align 8
  %8 = alloca ptr, align 8
  %9 = alloca ptr, align 8
  %10 = alloca ptr, align 8
  %11 = alloca double, align 8
  store double %0, ptr %5, align 8, !tbaa !17
  store ptr %1, ptr %6, align 8, !tbaa !13
  store ptr %2, ptr %7, align 8, !tbaa !13
  store ptr %3, ptr %8, align 8, !tbaa !19
  call void @llvm.lifetime.start.p0(i64 8, ptr %9) #7
  %12 = load ptr, ptr %6, align 8, !tbaa !13
  %13 = call ptr @N_VGetArrayPointer(ptr noundef %12)
  store ptr %13, ptr %9, align 8, !tbaa !15
  call void @llvm.lifetime.start.p0(i64 8, ptr %10) #7
  %14 = load ptr, ptr %7, align 8, !tbaa !13
  %15 = call ptr @N_VGetArrayPointer(ptr noundef %14)
  store ptr %15, ptr %10, align 8, !tbaa !15
  call void @llvm.lifetime.start.p0(i64 8, ptr %11) #7
  %16 = load ptr, ptr %9, align 8, !tbaa !15
  %17 = getelementptr inbounds double, ptr %16, i64 0
  %18 = load double, ptr %17, align 8, !tbaa !17
  store double %18, ptr %11, align 8, !tbaa !17
  %19 = load double, ptr %11, align 8, !tbaa !17
  %20 = load double, ptr %5, align 8, !tbaa !17
  %21 = call double @F(double noundef %20)
  %22 = fneg double %21
  %23 = call double @exp(double noundef %22) #7, !tbaa !4
  %24 = fmul double %19, %23
  %25 = load ptr, ptr %10, align 8, !tbaa !15
  %26 = getelementptr inbounds double, ptr %25, i64 1
  store double %24, ptr %26, align 8, !tbaa !17
  call void @llvm.lifetime.end.p0(i64 8, ptr %11) #7
  call void @llvm.lifetime.end.p0(i64 8, ptr %10) #7
  call void @llvm.lifetime.end.p0(i64 8, ptr %9) #7
  ret i32 0
}