; Function Attrs: nounwind uwtable
define internal noundef i32 @qdot(double noundef %0, ptr noundef %1, ptr noundef %2, ptr readnone captures(none) %3) #0 {
  %5 = tail call ptr @N_VGetArrayPointer(ptr noundef %1) #10
  %6 = tail call ptr @N_VGetArrayPointer(ptr noundef %2) #10
  %7 = load double, ptr %5, align 8, !tbaa !13
  %8 = fdiv double %0, 0x400921FB54442D18
  %9 = tail call double @sin(double noundef %8) #10, !tbaa !16
  %10 = fmul double %9, -1.800000e-02
  %11 = tail call double @exp(double noundef %10) #10, !tbaa !16
  %12 = fmul double %7, %11
  %13 = getelementptr inbounds nuw i8, ptr %6, i64 8
  store double %12, ptr %13, align 8, !tbaa !13
  ret i32 0
}